(dp0
S'status'
p1
S'Site is down, sorry. The staff is aware and are working on it.'
p2
sS'reason'
p3
S"We forgot to feed Pervy's humpster"
p4
sS'eta'
p5
S"The staff isn't sure how long it will take... probably a few hours."
p6
s.